; Function Attrs: nounwind uwtable
define internal fastcc ptr @get_commit_tree_in_graph_one(ptr noundef %0, ptr noundef readonly captures(none) %1, ptr noundef captures(none) %2) unnamed_addr #0 {
  %4 = alloca %struct.object_id, align 4
  %5 = getelementptr inbounds nuw i8, ptr %2, i64 56
  %6 = load ptr, ptr %5, align 8, !tbaa !133
  %.not = icmp eq ptr %6, null
  br i1 %.not, label %7, label %52

7:                                                ; preds = %3
  %8 = getelementptr i8, ptr %2, i64 64
  %.val.i = load i32, ptr %8, align 8, !tbaa !49
  %9 = udiv i32 %.val.i, 32766
  %10 = urem i32 %.val.i, 32766
  %11 = load i32, ptr @commit_graph_data_slab.2, align 8, !tbaa !55
  %.not.i.i.i = icmp ugt i32 %11, %9
  br i1 %.not.i.i.i, label %._crit_edge4.i.i.i, label %commit_graph_position.exit.thread

._crit_edge4.i.i.i:                               ; preds = %7
  %.pre.i.i.i = load ptr, ptr @commit_graph_data_slab.3, align 8, !tbaa !58
  %12 = zext nneg i32 %9 to i64
  %13 = getelementptr inbounds nuw ptr, ptr %.pre.i.i.i, i64 %12
  %14 = load ptr, ptr %13, align 8, !tbaa !59
  %.not35.i.i.i = icmp eq ptr %14, null
  br i1 %.not35.i.i.i, label %commit_graph_position.exit.thread, label %commit_graph_position.exit

commit_graph_position.exit:                       ; preds = %._crit_edge4.i.i.i
  %15 = zext nneg i32 %10 to i64
  %16 = getelementptr inbounds nuw %struct.commit_graph_data, ptr %14, i64 %15
  %17 = load i32, ptr %16, align 8, !tbaa !61
  %18 = icmp eq i32 %17, -1
  br i1 %18, label %commit_graph_position.exit.thread, label %commit_graph_position.exit.i

commit_graph_position.exit.thread:                ; preds = %._crit_edge4.i.i.i, %7, %commit_graph_position.exit
  tail call void (ptr, i32, ptr, ...) @BUG_fl(ptr noundef nonnull @.str.48, i32 noundef 1123, ptr noundef nonnull @.str.53) #25
  unreachable

commit_graph_position.exit.i:                     ; preds = %commit_graph_position.exit
  call void @llvm.lifetime.start.p0(i64 36, ptr nonnull %4) #24
  %19 = getelementptr inbounds nuw i8, ptr %1, i64 80
  %20 = load i32, ptr %19, align 8, !tbaa !116
  %21 = icmp ult i32 %17, %20
  br i1 %21, label %.lr.ph.i, label %._crit_edge.i

.lr.ph.i:                                         ; preds = %commit_graph_position.exit.i, %.lr.ph.i
  %.013.i = phi ptr [ %23, %.lr.ph.i ], [ %1, %commit_graph_position.exit.i ]
  %22 = getelementptr inbounds nuw i8, ptr %.013.i, i64 88
  %23 = load ptr, ptr %22, align 8, !tbaa !114
  %24 = getelementptr inbounds nuw i8, ptr %23, i64 80
  %25 = load i32, ptr %24, align 8, !tbaa !116
  %26 = icmp ult i32 %17, %25
  br i1 %26, label %.lr.ph.i, label %._crit_edge.i, !llvm.loop !151

._crit_edge.i:                                    ; preds = %.lr.ph.i, %commit_graph_position.exit.i
  %.0.lcssa.i = phi ptr [ %1, %commit_graph_position.exit.i ], [ %23, %.lr.ph.i ]
  %.lcssa.i = phi i32 [ %20, %commit_graph_position.exit.i ], [ %25, %.lr.ph.i ]
  %27 = getelementptr inbounds nuw i8, ptr %.0.lcssa.i, i64 112
  %28 = load ptr, ptr %27, align 8, !tbaa !100
  %29 = load ptr, ptr @the_repository, align 8, !tbaa !4
  %30 = getelementptr inbounds nuw i8, ptr %29, i64 400
  %31 = load ptr, ptr %30, align 8, !tbaa !71
  %32 = getelementptr inbounds nuw i8, ptr %31, i64 16
  %33 = load i64, ptr %32, align 8, !tbaa !72
  %34 = add i64 %33, 16
  %35 = sub nuw i32 %17, %.lcssa.i
  %36 = zext i32 %35 to i64
  %.not.i.i = icmp eq i64 %34, 0
  br i1 %.not.i.i, label %st_mult.exit.thread.i, label %37

st_mult.exit.thread.i:                            ; preds = %._crit_edge.i
  call void @llvm.memcpy.p0.p0.i64(ptr nonnull align 4 %4, ptr readonly align 1 %28, i64 %33, i1 false)
  br label %.preheader

37:                                               ; preds = %._crit_edge.i
  %mul.i.i = tail call { i64, i1 } @llvm.umul.with.overflow.i64(i64 %34, i64 %36)
  %mul.ov.i.i = extractvalue { i64, i1 } %mul.i.i, 1
  br i1 %mul.ov.i.i, label %38, label %st_mult.exit.i

38:                                               ; preds = %37
  tail call void (ptr, ...) @die(ptr noundef nonnull @.str.59, i64 noundef %34, i64 noundef %36) #25
  unreachable

st_mult.exit.i:                                   ; preds = %37
  %39 = mul i64 %34, %36
  %40 = getelementptr inbounds nuw i8, ptr %28, i64 %39
  call void @llvm.memcpy.p0.p0.i64(ptr nonnull align 4 %4, ptr readonly align 1 %40, i64 %33, i1 false)
  %41 = icmp ult i64 %33, 32
  br i1 %41, label %42, label %.preheader

42:                                               ; preds = %st_mult.exit.i
  %43 = getelementptr inbounds nuw i8, ptr %4, i64 %33
  %44 = sub nuw nsw i64 32, %33
  call void @llvm.memset.p0.i64(ptr nonnull align 1 %43, i8 0, i64 %44, i1 false)
  br label %.preheader

.preheader:                                       ; preds = %42, %st_mult.exit.i, %st_mult.exit.thread.i
  br label %45

45:                                               ; preds = %.preheader, %47
  %.0811.i.i.i = phi i64 [ %48, %47 ], [ 0, %.preheader ]
  %46 = getelementptr inbounds nuw [3 x %struct.git_hash_algo], ptr @hash_algos, i64 0, i64 %.0811.i.i.i
  %.not.i.i.i8 = icmp eq ptr %31, %46
  br i1 %.not.i.i.i8, label %.split.loop.exit9.i.i.i, label %47

47:                                               ; preds = %45
  %48 = add nuw nsw i64 %.0811.i.i.i, 1
  %exitcond.not.i.i.i = icmp eq i64 %48, 3
  br i1 %exitcond.not.i.i.i, label %load_tree_for_commit.exit, label %45, !llvm.loop !92

.split.loop.exit9.i.i.i:                          ; preds = %45
  %49 = trunc nuw nsw i64 %.0811.i.i.i to i32
  br label %load_tree_for_commit.exit

load_tree_for_commit.exit:                        ; preds = %47, %.split.loop.exit9.i.i.i
  %.2.i.i.i = phi i32 [ %49, %.split.loop.exit9.i.i.i ], [ 0, %47 ]
  %50 = getelementptr inbounds nuw i8, ptr %4, i64 32
  store i32 %.2.i.i.i, ptr %50, align 4, !tbaa !94
  %51 = call ptr @lookup_tree(ptr noundef %0, ptr noundef nonnull %4) #24
  store ptr %51, ptr %5, align 8, !tbaa !133
  call void @llvm.lifetime.end.p0(i64 36, ptr nonnull %4) #24
  br label %52

52:                                               ; preds = %3, %load_tree_for_commit.exit
  %.0 = phi ptr [ %51, %load_tree_for_commit.exit ], [ %6, %3 ]
  ret ptr %.0
}